; Function Attrs: mustprogress uwtable
define void @_ZNK32pxrInternal_v0_24__pxrReserved__7UsdPrim12GetInstancesEv(ptr dead_on_unwind noalias writable sret(%"class.std::vector.227") align 8 %0, ptr noundef nonnull align 8 dereferenceable(32) %1) local_unnamed_addr #0 align 2 {
  %3 = getelementptr inbounds nuw i8, ptr %1, i64 8
  %4 = load ptr, ptr %3, align 8
  %.not.i.i = icmp eq ptr %4, null
  br i1 %.not.i.i, label %9, label %5

5:                                                ; preds = %2
  %6 = getelementptr inbounds nuw i8, ptr %4, i64 56
  %7 = load i64, ptr %6, align 8
  %8 = and i64 %7, 2048
  %.not5.i.i = icmp eq i64 %8, 0
  br i1 %.not5.i.i, label %_ZNK32pxrInternal_v0_24__pxrReserved__9UsdObject9_GetStageEv.exit, label %9

9:                                                ; preds = %5, %2
  tail call void @_ZN32pxrInternal_v0_24__pxrReserved__31Usd_ThrowExpiredPrimAccessErrorEPKNS_12Usd_PrimDataE(ptr noundef %4)
  br label %_ZNK32pxrInternal_v0_24__pxrReserved__9UsdObject9_GetStageEv.exit

_ZNK32pxrInternal_v0_24__pxrReserved__9UsdObject9_GetStageEv.exit: ; preds = %5, %9
  %10 = load ptr, ptr %4, align 8
  tail call void @_ZNK32pxrInternal_v0_24__pxrReserved__8UsdStage25_GetInstancesForPrototypeERKNS_7UsdPrimE(ptr dead_on_unwind writable sret(%"class.std::vector.227") align 8 %0, ptr noundef nonnull align 8 dereferenceable(1282) %10, ptr noundef nonnull align 8 dereferenceable(32) %1)
  ret void
}